target datalayout = "e-m:e-p270:32:32-p271:32:32-p272:64:64-i64:64-i128:128-f80:128-n8:16:32:64-S128"
target triple = "x86_64-pc-linux-gnu"

%"struct.std::__detail::_Hash_node_base" = type { ptr }
%"struct.std::__detail::_Prime_rehash_policy" = type { float, i64 }
%struct.FaceGroup = type { ptr, i32, %"class.std::vector.72", %"class.std::unordered_set", i32, float, float, double, i8, [7 x i8], %"struct.FaceGroup::Cache" }
%"class.std::vector.72" = type { %"struct.std::_Vector_base.73" }
%"struct.std::_Vector_base.73" = type { %"struct.std::_Vector_base<MeshFace *, std::allocator<MeshFace *>>::_Vector_impl" }
%"struct.std::_Vector_base<MeshFace *, std::allocator<MeshFace *>>::_Vector_impl" = type { %"struct.std::_Vector_base<MeshFace *, std::allocator<MeshFace *>>::_Vector_impl_data" }
%"struct.std::_Vector_base<MeshFace *, std::allocator<MeshFace *>>::_Vector_impl_data" = type { ptr, ptr, ptr }
%"class.std::unordered_set" = type { %"class.std::_Hashtable.77" }
%"class.std::_Hashtable.77" = type { ptr, i64, %"struct.std::__detail::_Hash_node_base", i64, %"struct.std::__detail::_Prime_rehash_policy", ptr }
%"struct.FaceGroup::Cache" = type <{ double, double, double, double, %"class.vcg::Point3", i8, [7 x i8] }>
%"class.vcg::Point3" = type { [3 x double] }

; Function Attrs: mustprogress uwtable
define noundef double @_ZNK9FaceGroup6AreaUVEv(ptr noundef nonnull align 8 dereferenceable(192) %0) #5 align 2 {
  %2 = alloca ptr, align 8
  store ptr %0, ptr %2, align 8
  %3 = load ptr, ptr %2, align 8
  %4 = getelementptr inbounds %struct.FaceGroup, ptr %3, i32 0, i32 8
  %5 = load i8, ptr %4, align 8
  %6 = trunc i8 %5 to i1
  br i1 %6, label %7, label %8

7:                                                ; preds = %1
  call void @_ZNK9FaceGroup11UpdateCacheEv(ptr noundef nonnull align 8 dereferenceable(192) %3)
  br label %8

8:                                                ; preds = %7, %1
  %9 = getelementptr inbounds %struct.FaceGroup, ptr %3, i32 0, i32 10
  %10 = getelementptr inbounds %"struct.FaceGroup::Cache", ptr %9, i32 0, i32 0
  %11 = load double, ptr %10, align 8
  ret double %11
}