; Function Attrs: mustprogress nofree norecurse nosync nounwind memory(read, argmem: readwrite, inaccessiblemem: none) uwtable
define noundef double @_ZNK9FaceGroup6AreaUVEv(ptr nocapture noundef nonnull align 8 dereferenceable(192) %0) local_unnamed_addr #15 align 2 {
  %2 = getelementptr inbounds i8, ptr %0, i64 120
  %3 = load i8, ptr %2, align 8
  %4 = and i8 %3, 1
  %.not = icmp eq i8 %4, 0
  br i1 %.not, label %6, label %5

5:                                                ; preds = %1
  tail call void @_ZNK9FaceGroup11UpdateCacheEv(ptr noundef nonnull align 8 dereferenceable(192) %0)
  br label %6

6:                                                ; preds = %5, %1
  %7 = getelementptr inbounds i8, ptr %0, i64 128
  %8 = load double, ptr %7, align 8
  ret double %8
}